; Function Attrs: mustprogress uwtable
define hidden noundef zeroext i1 @_ZN6google8protobuf24SimpleDescriptorDatabase3AddERKNS0_19FileDescriptorProtoE(ptr noundef nonnull align 8 dereferenceable(176) %0, ptr noundef nonnull align 8 dereferenceable(216) %1) local_unnamed_addr #6 align 2 personality ptr @__gxx_personality_v0 {
  %3 = tail call noalias noundef nonnull dereferenceable(216) ptr @_Znwm(i64 noundef 216) #28
  invoke void @_ZN6google8protobuf19FileDescriptorProtoC2EPNS0_5ArenaEb(ptr noundef nonnull align 8 dereferenceable(216) %3, ptr noundef null, i1 noundef zeroext false)
          to label %_ZN6google8protobuf19FileDescriptorProtoC2Ev.exit unwind label %5

_ZN6google8protobuf19FileDescriptorProtoC2Ev.exit: ; preds = %2
  tail call void @_ZN6google8protobuf19FileDescriptorProto8CopyFromERKS1_(ptr noundef nonnull align 8 dereferenceable(216) %3, ptr noundef nonnull align 8 dereferenceable(216) %1)
  %4 = tail call noundef zeroext i1 @_ZN6google8protobuf24SimpleDescriptorDatabase9AddAndOwnEPKNS0_19FileDescriptorProtoE(ptr noundef nonnull align 8 dereferenceable(176) %0, ptr noundef nonnull %3)
  ret i1 %4

5:                                                ; preds = %2
  %6 = landingpad { ptr, i32 }
          cleanup
  tail call void @_ZdlPv(ptr noundef nonnull %3) #27
  resume { ptr, i32 } %6
}